; Function Attrs: mustprogress uwtable
define void @_ZN6gmxapi11ContextImpl6createEONS_17MpiContextManagerE(ptr dead_on_unwind noalias writable sret(%"class.std::shared_ptr") align 8 initializes((0, 16)) %0, ptr noundef nonnull align 8 dereferenceable(8) %1) local_unnamed_addr #0 align 2 personality ptr @__gxx_personality_v0 {
  %3 = alloca %"class.std::__shared_ptr", align 8
  tail call void @llvm.memset.p0.i64(ptr noundef nonnull align 8 dereferenceable(16) %0, i8 0, i64 16, i1 false)
  %4 = invoke noalias noundef nonnull dereferenceable(2248) ptr @_Znwm(i64 noundef 2248) #23
          to label %5 unwind label %7

5:                                                ; preds = %2
  invoke void @_ZN6gmxapi11ContextImplC1EONS_17MpiContextManagerE(ptr noundef nonnull align 8 dereferenceable(2248) %4, ptr noundef nonnull align 8 dereferenceable(8) %1)
          to label %6 unwind label %9

6:                                                ; preds = %5
  call void @llvm.lifetime.start.p0(i64 16, ptr nonnull %3) #21
  invoke void @_ZNSt12__shared_ptrIN6gmxapi11ContextImplELN9__gnu_cxx12_Lock_policyE2EEC2IS1_vEEPT_(ptr noundef nonnull align 8 dereferenceable(16) %3, ptr noundef nonnull %4)
          to label %11 unwind label %7

7:                                                ; preds = %6, %2
  %8 = landingpad { ptr, i32 }
          cleanup
  br label %16

9:                                                ; preds = %5
  %10 = landingpad { ptr, i32 }
          cleanup
  tail call void @_ZdlPvm(ptr noundef nonnull %4, i64 noundef 2248) #24
  br label %16

11:                                               ; preds = %6
  %12 = load ptr, ptr %3, align 8, !tbaa !45
  store ptr %12, ptr %0, align 8, !tbaa !45
  %13 = getelementptr inbounds nuw i8, ptr %3, i64 8
  %14 = getelementptr inbounds nuw i8, ptr %0, i64 8
  %15 = load ptr, ptr %13, align 8, !tbaa !47
  store ptr %15, ptr %14, align 8, !tbaa !47
  call void @llvm.lifetime.end.p0(i64 16, ptr nonnull %3) #21
  ret void

16:                                               ; preds = %9, %7
  %.pn = phi { ptr, i32 } [ %8, %7 ], [ %10, %9 ]
  call void @_ZNSt12__shared_ptrIN6gmxapi11ContextImplELN9__gnu_cxx12_Lock_policyE2EED2Ev(ptr noundef nonnull align 8 dereferenceable(16) %0) #21
  resume { ptr, i32 } %.pn
}